target datalayout = "e-m:e-p270:32:32-p271:32:32-p272:64:64-i64:64-i128:128-f80:128-n8:16:32:64-S128"
target triple = "x86_64-pc-linux-gnu"

%"struct.cvc5::internal::theory::arith::linear::PrimitiveVec" = type { i32, ptr, ptr }

; Function Attrs: mustprogress nounwind uwtable
define hidden noundef zeroext i1 @_ZNK4cvc58internal6theory5arith6linear12PrimitiveVec11initializedEv(ptr noundef nonnull align 8 dereferenceable(24) %0) #4 align 2 {
  %2 = alloca ptr, align 8
  store ptr %0, ptr %2, align 8, !tbaa !44
  %3 = load ptr, ptr %2, align 8
  %4 = getelementptr inbounds nuw %"struct.cvc5::internal::theory::arith::linear::PrimitiveVec", ptr %3, i32 0, i32 1
  %5 = load ptr, ptr %4, align 8, !tbaa !49
  %6 = icmp ne ptr %5, null
  ret i1 %6
}

; Function Attrs: noinline noreturn nounwind uwtable
define linkonce_odr hidden void @__clang_call_terminate(ptr noundef %0) #7 comdat {
  %2 = call ptr @__cxa_begin_catch(ptr %0) #3
  call void @_ZSt9terminatev() #20
  unreachable
}

; Function Attrs: mustprogress nounwind uwtable
define hidden void @_ZN4cvc58internal6theory5arith6linear12PrimitiveVec5clearEv(ptr noundef nonnull align 8 dereferenceable(24) %0) #4 align 2 {
  %2 = alloca ptr, align 8
  store ptr %0, ptr %2, align 8, !tbaa !44
  %3 = load ptr, ptr %2, align 8
  %4 = call noundef zeroext i1 @_ZNK4cvc58internal6theory5arith6linear12PrimitiveVec11initializedEv(ptr noundef nonnull align 8 dereferenceable(24) %3)
  br i1 %4, label %5, label %19

5:                                                ; preds = %1
  %6 = getelementptr inbounds nuw %"struct.cvc5::internal::theory::arith::linear::PrimitiveVec", ptr %3, i32 0, i32 1
  %7 = load ptr, ptr %6, align 8, !tbaa !49
  %8 = icmp eq ptr %7, null
  br i1 %8, label %10, label %9

9:                                                ; preds = %5
  call void @_ZdaPv(ptr noundef %7) #21
  br label %10

10:                                               ; preds = %9, %5
  %11 = getelementptr inbounds nuw %"struct.cvc5::internal::theory::arith::linear::PrimitiveVec", ptr %3, i32 0, i32 2
  %12 = load ptr, ptr %11, align 8, !tbaa !50
  %13 = icmp eq ptr %12, null
  br i1 %13, label %15, label %14

14:                                               ; preds = %10
  call void @_ZdaPv(ptr noundef %12) #21
  br label %15

15:                                               ; preds = %14, %10
  %16 = getelementptr inbounds nuw %"struct.cvc5::internal::theory::arith::linear::PrimitiveVec", ptr %3, i32 0, i32 0
  store i32 0, ptr %16, align 8, !tbaa !46
  %17 = getelementptr inbounds nuw %"struct.cvc5::internal::theory::arith::linear::PrimitiveVec", ptr %3, i32 0, i32 1
  store ptr null, ptr %17, align 8, !tbaa !49
  %18 = getelementptr inbounds nuw %"struct.cvc5::internal::theory::arith::linear::PrimitiveVec", ptr %3, i32 0, i32 2
  store ptr null, ptr %18, align 8, !tbaa !50
  br label %19

19:                                               ; preds = %15, %1
  ret void
}

; Function Attrs: mustprogress nounwind uwtable
define hidden void @_ZN4cvc58internal6theory5arith6linear12PrimitiveVecD2Ev(ptr noundef nonnull align 8 dereferenceable(24) %0) unnamed_addr #4 align 2 personality ptr @__gxx_personality_v0 {
  %2 = alloca ptr, align 8
  store ptr %0, ptr %2, align 8, !tbaa !44
  %3 = load ptr, ptr %2, align 8
  invoke void @_ZN4cvc58internal6theory5arith6linear12PrimitiveVec5clearEv(ptr noundef nonnull align 8 dereferenceable(24) %3)
          to label %4 unwind label %5

4:                                                ; preds = %1
  ret void

5:                                                ; preds = %1
  %6 = landingpad { ptr, i32 }
          catch ptr null
  %7 = extractvalue { ptr, i32 } %6, 0
  call void @__clang_call_terminate(ptr %7) #20
  unreachable
}