; Function Attrs: mustprogress nounwind uwtable
define hidden void @_ZN4cvc58internal6theory5arith6linear12PrimitiveVecD2Ev(ptr noundef nonnull align 8 captures(none) dereferenceable(24) %0) unnamed_addr #9 align 2 personality ptr @__gxx_personality_v0 {
  %2 = getelementptr inbounds nuw i8, ptr %0, i64 8
  %3 = load ptr, ptr %2, align 8, !tbaa !39
  %.not.i = icmp eq ptr %3, null
  br i1 %.not.i, label %_ZN4cvc58internal6theory5arith6linear12PrimitiveVec5clearEv.exit, label %4

4:                                                ; preds = %1
  tail call void @_ZdaPv(ptr noundef nonnull %3) #26
  %5 = getelementptr inbounds nuw i8, ptr %0, i64 16
  %6 = load ptr, ptr %5, align 8, !tbaa !40
  %7 = icmp eq ptr %6, null
  br i1 %7, label %9, label %8

8:                                                ; preds = %4
  tail call void @_ZdaPv(ptr noundef nonnull %6) #26
  br label %9

9:                                                ; preds = %8, %4
  store i32 0, ptr %0, align 8, !tbaa !36
  tail call void @llvm.memset.p0.i64(ptr noundef nonnull align 8 dereferenceable(16) %2, i8 0, i64 16, i1 false)
  br label %_ZN4cvc58internal6theory5arith6linear12PrimitiveVec5clearEv.exit

_ZN4cvc58internal6theory5arith6linear12PrimitiveVec5clearEv.exit: ; preds = %1, %9
  ret void
}